target datalayout = "e-m:e-p270:32:32-p271:32:32-p272:64:64-i64:64-i128:128-f80:128-n8:16:32:64-S128"
target triple = "x86_64-pc-linux-gnu"

%"class.std::__cxx11::basic_string" = type { %"struct.std::__cxx11::basic_string<char>::_Alloc_hider", i64, %union.anon }
%"struct.std::__cxx11::basic_string<char>::_Alloc_hider" = type { ptr }
%union.anon = type { i64, [8 x i8] }
%class.StatementAssign = type { %class.Statement, i32, ptr, ptr, ptr, ptr, %"class.std::__cxx11::basic_string", %"class.std::__cxx11::basic_string" }
%class.Statement = type { ptr, i32, i32, ptr, ptr }

; Function Attrs: mustprogress nounwind uwtable
define dso_local void @_ZN15StatementAssignD2Ev(ptr noundef nonnull align 8 dereferenceable(136) %0) unnamed_addr #4 align 2 {
  %2 = alloca ptr, align 8
  store ptr %0, ptr %2, align 8
  %3 = load ptr, ptr %2, align 8
  store ptr getelementptr inbounds ({ [13 x ptr] }, ptr @_ZTV15StatementAssign, i32 0, i32 0, i32 2), ptr %3, align 8
  %4 = getelementptr inbounds %class.StatementAssign, ptr %3, i32 0, i32 4
  %5 = load ptr, ptr %4, align 8
  %6 = getelementptr inbounds %class.StatementAssign, ptr %3, i32 0, i32 3
  %7 = load ptr, ptr %6, align 8
  %8 = icmp ne ptr %5, %7
  br i1 %8, label %9, label %18

9:                                                ; preds = %1
  %10 = getelementptr inbounds %class.StatementAssign, ptr %3, i32 0, i32 4
  %11 = load ptr, ptr %10, align 8
  %12 = icmp eq ptr %11, null
  br i1 %12, label %17, label %13

13:                                               ; preds = %9
  %14 = load ptr, ptr %11, align 8
  %15 = getelementptr inbounds ptr, ptr %14, i64 1
  %16 = load ptr, ptr %15, align 8
  call void %16(ptr noundef nonnull align 8 dereferenceable(24) %11) #3
  br label %17

17:                                               ; preds = %13, %9
  br label %18

18:                                               ; preds = %17, %1
  %19 = getelementptr inbounds %class.StatementAssign, ptr %3, i32 0, i32 2
  %20 = load ptr, ptr %19, align 8
  %21 = icmp eq ptr %20, null
  br i1 %21, label %26, label %22

22:                                               ; preds = %18
  %23 = load ptr, ptr %20, align 8
  %24 = getelementptr inbounds ptr, ptr %23, i64 1
  %25 = load ptr, ptr %24, align 8
  call void %25(ptr noundef nonnull align 8 dereferenceable(41) %20) #3
  br label %26

26:                                               ; preds = %22, %18
  %27 = getelementptr inbounds %class.StatementAssign, ptr %3, i32 0, i32 3
  %28 = load ptr, ptr %27, align 8
  %29 = icmp eq ptr %28, null
  br i1 %29, label %34, label %30

30:                                               ; preds = %26
  %31 = load ptr, ptr %28, align 8
  %32 = getelementptr inbounds ptr, ptr %31, i64 1
  %33 = load ptr, ptr %32, align 8
  call void %33(ptr noundef nonnull align 8 dereferenceable(24) %28) #3
  br label %34

34:                                               ; preds = %30, %26
  %35 = getelementptr inbounds %class.StatementAssign, ptr %3, i32 0, i32 5
  %36 = load ptr, ptr %35, align 8
  %37 = icmp ne ptr %36, null
  br i1 %37, label %38, label %44

38:                                               ; preds = %34
  %39 = getelementptr inbounds %class.StatementAssign, ptr %3, i32 0, i32 5
  %40 = load ptr, ptr %39, align 8
  %41 = icmp eq ptr %40, null
  br i1 %41, label %43, label %42

42:                                               ; preds = %38
  call void @_ZN11SafeOpFlagsD1Ev(ptr noundef nonnull align 4 dereferenceable(8) %40) #3
  call void @_ZdlPv(ptr noundef %40) #15
  br label %43

43:                                               ; preds = %42, %38
  br label %44

44:                                               ; preds = %43, %34
  %45 = getelementptr inbounds %class.StatementAssign, ptr %3, i32 0, i32 7
  call void @_ZNSt7__cxx1112basic_stringIcSt11char_traitsIcESaIcEED1Ev(ptr noundef nonnull align 8 dereferenceable(32) %45) #3
  %46 = getelementptr inbounds %class.StatementAssign, ptr %3, i32 0, i32 6
  call void @_ZNSt7__cxx1112basic_stringIcSt11char_traitsIcESaIcEED1Ev(ptr noundef nonnull align 8 dereferenceable(32) %46) #3
  call void @_ZN9StatementD2Ev(ptr noundef nonnull align 8 dereferenceable(32) %3) #3
  ret void
}