; Function Attrs: mustprogress nounwind uwtable
define dso_local void @_ZN15StatementAssignD2Ev(ptr noundef nonnull align 8 dereferenceable(136) %0) unnamed_addr #3 align 2 {
  store ptr getelementptr inbounds ({ [13 x ptr] }, ptr @_ZTV15StatementAssign, i64 0, i32 0, i64 2), ptr %0, align 8
  %2 = getelementptr inbounds i8, ptr %0, i64 56
  %3 = load ptr, ptr %2, align 8
  %4 = getelementptr inbounds i8, ptr %0, i64 48
  %5 = load ptr, ptr %4, align 8
  %.not = icmp eq ptr %3, %5
  %6 = icmp eq ptr %3, null
  %or.cond = or i1 %6, %.not
  br i1 %or.cond, label %11, label %7

7:                                                ; preds = %1
  %8 = load ptr, ptr %3, align 8
  %9 = getelementptr inbounds i8, ptr %8, i64 8
  %10 = load ptr, ptr %9, align 8
  tail call void %10(ptr noundef nonnull align 8 dereferenceable(24) %3) #19
  br label %11

11:                                               ; preds = %7, %1
  %12 = getelementptr inbounds i8, ptr %0, i64 40
  %13 = load ptr, ptr %12, align 8
  %14 = icmp eq ptr %13, null
  br i1 %14, label %19, label %15

15:                                               ; preds = %11
  %16 = load ptr, ptr %13, align 8
  %17 = getelementptr inbounds i8, ptr %16, i64 8
  %18 = load ptr, ptr %17, align 8
  tail call void %18(ptr noundef nonnull align 8 dereferenceable(41) %13) #19
  br label %19

19:                                               ; preds = %15, %11
  %20 = load ptr, ptr %4, align 8
  %21 = icmp eq ptr %20, null
  br i1 %21, label %26, label %22

22:                                               ; preds = %19
  %23 = load ptr, ptr %20, align 8
  %24 = getelementptr inbounds i8, ptr %23, i64 8
  %25 = load ptr, ptr %24, align 8
  tail call void %25(ptr noundef nonnull align 8 dereferenceable(24) %20) #19
  br label %26

26:                                               ; preds = %22, %19
  %27 = getelementptr inbounds i8, ptr %0, i64 64
  %28 = load ptr, ptr %27, align 8
  %.not4 = icmp eq ptr %28, null
  br i1 %.not4, label %30, label %29

29:                                               ; preds = %26
  tail call void @_ZN11SafeOpFlagsD1Ev(ptr noundef nonnull align 4 dereferenceable(8) %28) #19
  tail call void @_ZdlPv(ptr noundef nonnull %28) #18
  br label %30

30:                                               ; preds = %29, %26
  %31 = getelementptr inbounds i8, ptr %0, i64 104
  tail call void @_ZNSt7__cxx1112basic_stringIcSt11char_traitsIcESaIcEED1Ev(ptr noundef nonnull align 8 dereferenceable(32) %31) #19
  %32 = getelementptr inbounds i8, ptr %0, i64 72
  tail call void @_ZNSt7__cxx1112basic_stringIcSt11char_traitsIcESaIcEED1Ev(ptr noundef nonnull align 8 dereferenceable(32) %32) #19
  tail call void @_ZN9StatementD2Ev(ptr noundef nonnull align 8 dereferenceable(32) %0) #19
  ret void
}